target datalayout = "e-m:e-p270:32:32-p271:32:32-p272:64:64-i64:64-i128:128-f80:128-n8:16:32:64-S128"
target triple = "x86_64-pc-linux-gnu"

%class.Register = type { i32 }
%class.LIR_Assembler = type { ptr, ptr, ptr, ptr, ptr, ptr, i32, i32, %class.Label }
%class.Label = type <{ i32, [4 x i32], i32, ptr, i8, [7 x i8] }>
%class.AbstractAssembler = type { ptr, ptr, ptr }
%class.CodeSection = type { ptr, ptr, ptr, ptr, ptr, ptr, ptr, ptr, i8, i8, i32, i8, ptr }
%class.RelocationHolder = type { [40 x i8] }
%class.AddressLiteral = type { %class.RelocationHolder, i8, ptr }
%class.RuntimeAddress = type { %class.AddressLiteral }
%class.InternalAddress = type { %class.AddressLiteral }
%class.DeoptimizationBlob = type { %class.SingletonBlob.base, i32, i32, i32, i32, i32, i32 }
%class.SingletonBlob.base = type { %class.RuntimeBlob.base }
%class.RuntimeBlob.base = type { %class.CodeBlob.base }
%class.CodeBlob.base = type <{ ptr, ptr, ptr, i32, i32, i32, i32, i32, i32, i16, i16, i8, i8 }>
%class.CodeBlob = type <{ ptr, ptr, ptr, i32, i32, i32, i32, i32, i32, i16, i16, i8, i8, [2 x i8] }>

@_ZL9rscratch1 = internal constant %class.Register { i32 10 }, align 4
@g_assert_poison = external global ptr, align 8
@.str.8 = private unnamed_addr constant [44 x i8] c"src/hotspot/cpu/x86/c1_LIRAssembler_x86.cpp\00", align 1
@_ZL5noreg = internal constant %class.Register { i32 -1 }, align 4
@.str.11 = private unnamed_addr constant [9 x i8] c"overflow\00", align 1
@.str.12 = private unnamed_addr constant [23 x i8] c"deopt handler overflow\00", align 1
@.str.13 = private unnamed_addr constant [65 x i8] c"guarantee(code_offset() - offset <= deopt_handler_size()) failed\00", align 1
@_ZN13SharedRuntime11_deopt_blobE = external global ptr, align 8

; Function Attrs: mustprogress nounwind uwtable
define linkonce_odr hidden noundef ptr @_ZNK16RelocationHolder5relocEv(ptr noundef nonnull align 8 dereferenceable(40) %0) #1 comdat align 2 {
  %2 = alloca ptr, align 8
  store ptr %0, ptr %2, align 8
  %3 = load ptr, ptr %2, align 8
  %4 = getelementptr inbounds %class.RelocationHolder, ptr %3, i32 0, i32 0
  %5 = getelementptr inbounds [40 x i8], ptr %4, i64 0, i64 0
  ret ptr %5
}

; Function Attrs: mustprogress nounwind uwtable
define linkonce_odr hidden noundef ptr @_ZNK8CodeBlob12header_beginEv(ptr noundef nonnull align 8 dereferenceable(54) %0) #1 comdat align 2 {
  %2 = alloca ptr, align 8
  store ptr %0, ptr %2, align 8
  %3 = load ptr, ptr %2, align 8
  ret ptr %3
}

; Function Attrs: mustprogress nounwind uwtable
define linkonce_odr hidden void @_ZN16RelocationHolderC2ERKS_(ptr noundef nonnull align 8 dereferenceable(40) %0, ptr noundef nonnull align 8 dereferenceable(40) %1) unnamed_addr #1 comdat align 2 {
  %3 = alloca ptr, align 8
  %4 = alloca ptr, align 8
  store ptr %0, ptr %3, align 8
  store ptr %1, ptr %4, align 8
  %5 = load ptr, ptr %3, align 8
  %6 = load ptr, ptr %4, align 8
  %7 = call noundef ptr @_ZNK16RelocationHolder5relocEv(ptr noundef nonnull align 8 dereferenceable(40) %6)
  %8 = load ptr, ptr %7, align 8
  %9 = getelementptr inbounds ptr, ptr %8, i64 2
  %10 = load ptr, ptr %9, align 8
  call void %10(ptr noundef nonnull align 8 dereferenceable(20) %7, ptr noundef nonnull align 8 dereferenceable(40) %5)
  ret void
}

; Function Attrs: mustprogress nounwind uwtable
define linkonce_odr hidden noundef ptr @_ZNK8CodeBlob10code_beginEv(ptr noundef nonnull align 8 dereferenceable(54) %0) #1 comdat align 2 {
  %2 = alloca ptr, align 8
  store ptr %0, ptr %2, align 8
  %3 = load ptr, ptr %2, align 8
  %4 = call noundef ptr @_ZNK8CodeBlob12header_beginEv(ptr noundef nonnull align 8 dereferenceable(54) %3)
  %5 = getelementptr inbounds %class.CodeBlob, ptr %3, i32 0, i32 6
  %6 = load i32, ptr %5, align 4
  %7 = sext i32 %6 to i64
  %8 = getelementptr inbounds i8, ptr %4, i64 %7
  ret ptr %8
}

; Function Attrs: mustprogress nounwind uwtable
define linkonce_odr hidden void @_ZN14AddressLiteralC2ERKS_(ptr noundef nonnull align 8 dereferenceable(56) %0, ptr noundef nonnull align 8 dereferenceable(56) %1) unnamed_addr #1 comdat align 2 {
  %3 = alloca ptr, align 8
  %4 = alloca ptr, align 8
  store ptr %0, ptr %3, align 8
  store ptr %1, ptr %4, align 8
  %5 = load ptr, ptr %3, align 8
  %6 = getelementptr inbounds %class.AddressLiteral, ptr %5, i32 0, i32 0
  %7 = load ptr, ptr %4, align 8
  %8 = getelementptr inbounds %class.AddressLiteral, ptr %7, i32 0, i32 0
  call void @_ZN16RelocationHolderC2ERKS_(ptr noundef nonnull align 8 dereferenceable(40) %6, ptr noundef nonnull align 8 dereferenceable(40) %8)
  %9 = getelementptr inbounds %class.AddressLiteral, ptr %5, i32 0, i32 1
  %10 = load ptr, ptr %4, align 8
  %11 = getelementptr inbounds %class.AddressLiteral, ptr %10, i32 0, i32 1
  call void @llvm.memcpy.p0.p0.i64(ptr align 8 %9, ptr align 8 %11, i64 16, i1 false)
  ret void
}

; Function Attrs: mustprogress nounwind uwtable
define linkonce_odr hidden noundef ptr @_ZNK11CodeSection3endEv(ptr noundef nonnull align 8 dereferenceable(88) %0) #1 comdat align 2 {
  %2 = alloca ptr, align 8
  store ptr %0, ptr %2, align 8
  %3 = load ptr, ptr %2, align 8
  %4 = getelementptr inbounds %class.CodeSection, ptr %3, i32 0, i32 2
  %5 = load ptr, ptr %4, align 8
  ret ptr %5
}

; Function Attrs: mustprogress nounwind uwtable
define linkonce_odr hidden noundef ptr @_ZNK17AbstractAssembler12code_sectionEv(ptr noundef nonnull align 8 dereferenceable(24) %0) #1 comdat align 2 {
  %2 = alloca ptr, align 8
  store ptr %0, ptr %2, align 8
  %3 = load ptr, ptr %2, align 8
  %4 = getelementptr inbounds %class.AbstractAssembler, ptr %3, i32 0, i32 1
  %5 = load ptr, ptr %4, align 8
  ret ptr %5
}

; Function Attrs: mustprogress nounwind uwtable
define linkonce_odr hidden noundef ptr @_ZNK13LIR_Assembler11compilationEv(ptr noundef nonnull align 8 dereferenceable(96) %0) #1 comdat align 2 {
  %2 = alloca ptr, align 8
  store ptr %0, ptr %2, align 8
  %3 = load ptr, ptr %2, align 8
  %4 = getelementptr inbounds %class.LIR_Assembler, ptr %3, i32 0, i32 2
  %5 = load ptr, ptr %4, align 8
  ret ptr %5
}

; Function Attrs: mustprogress nounwind uwtable
define linkonce_odr hidden void @_ZN14AddressLiteralC2EOS_(ptr noundef nonnull align 8 dereferenceable(56) %0, ptr noundef nonnull align 8 dereferenceable(56) %1) unnamed_addr #1 comdat align 2 {
  %3 = alloca ptr, align 8
  %4 = alloca ptr, align 8
  store ptr %0, ptr %3, align 8
  store ptr %1, ptr %4, align 8
  %5 = load ptr, ptr %3, align 8
  %6 = getelementptr inbounds %class.AddressLiteral, ptr %5, i32 0, i32 0
  %7 = load ptr, ptr %4, align 8
  %8 = getelementptr inbounds %class.AddressLiteral, ptr %7, i32 0, i32 0
  call void @_ZN16RelocationHolderC2ERKS_(ptr noundef nonnull align 8 dereferenceable(40) %6, ptr noundef nonnull align 8 dereferenceable(40) %8)
  %9 = getelementptr inbounds %class.AddressLiteral, ptr %5, i32 0, i32 1
  %10 = load ptr, ptr %4, align 8
  %11 = getelementptr inbounds %class.AddressLiteral, ptr %10, i32 0, i32 1
  call void @llvm.memcpy.p0.p0.i64(ptr align 8 %9, ptr align 8 %11, i64 16, i1 false)
  ret void
}

; Function Attrs: mustprogress nounwind uwtable
define linkonce_odr hidden void @_ZN14RuntimeAddressC2EPh(ptr noundef nonnull align 8 dereferenceable(56) %0, ptr noundef %1) unnamed_addr #1 comdat align 2 {
  %3 = alloca ptr, align 8
  %4 = alloca ptr, align 8
  store ptr %0, ptr %3, align 8
  store ptr %1, ptr %4, align 8
  %5 = load ptr, ptr %3, align 8
  %6 = load ptr, ptr %4, align 8
  call void @_ZN14AddressLiteralC2EPhN9relocInfo9relocTypeE(ptr noundef nonnull align 8 dereferenceable(56) %5, ptr noundef %6, i32 noundef 6)
  ret void
}

; Function Attrs: mustprogress nounwind uwtable
define linkonce_odr hidden noundef ptr @_ZNK18DeoptimizationBlob6unpackEv(ptr noundef nonnull align 8 dereferenceable(80) %0) #1 comdat align 2 {
  %2 = alloca ptr, align 8
  store ptr %0, ptr %2, align 8
  %3 = load ptr, ptr %2, align 8
  %4 = call noundef ptr @_ZNK8CodeBlob10code_beginEv(ptr noundef nonnull align 8 dereferenceable(54) %3)
  %5 = getelementptr inbounds %class.DeoptimizationBlob, ptr %3, i32 0, i32 1
  %6 = load i32, ptr %5, align 8
  %7 = sext i32 %6 to i64
  %8 = getelementptr inbounds i8, ptr %4, i64 %7
  ret ptr %8
}

; Function Attrs: mustprogress nounwind uwtable
define linkonce_odr hidden noundef ptr @_ZN13SharedRuntime10deopt_blobEv() #1 comdat align 2 {
  %1 = load ptr, ptr @_ZN13SharedRuntime11_deopt_blobE, align 8
  ret ptr %1
}

; Function Attrs: mustprogress nounwind uwtable
define linkonce_odr hidden void @_ZN14AddressLiteral4addrEv(ptr dead_on_unwind noalias writable sret(%class.AddressLiteral) align 8 %0, ptr noundef nonnull align 8 dereferenceable(56) %1) #1 comdat align 2 {
  %3 = alloca ptr, align 8
  %4 = alloca ptr, align 8
  store ptr %0, ptr %3, align 8
  store ptr %1, ptr %4, align 8
  %5 = load ptr, ptr %4, align 8
  call void @_ZN14AddressLiteralC2ERKS_(ptr noundef nonnull align 8 dereferenceable(56) %0, ptr noundef nonnull align 8 dereferenceable(56) %5)
  %6 = getelementptr inbounds %class.AddressLiteral, ptr %0, i32 0, i32 1
  store i8 1, ptr %6, align 8
  ret void
}

; Function Attrs: mustprogress nounwind uwtable
define linkonce_odr hidden void @_ZN15InternalAddressC2EPh(ptr noundef nonnull align 8 dereferenceable(56) %0, ptr noundef %1) unnamed_addr #1 comdat align 2 {
  %3 = alloca ptr, align 8
  %4 = alloca ptr, align 8
  store ptr %0, ptr %3, align 8
  store ptr %1, ptr %4, align 8
  %5 = load ptr, ptr %3, align 8
  %6 = load ptr, ptr %4, align 8
  call void @_ZN14AddressLiteralC2EPhN9relocInfo9relocTypeE(ptr noundef nonnull align 8 dereferenceable(56) %5, ptr noundef %6, i32 noundef 8)
  ret void
}

; Function Attrs: mustprogress nounwind uwtable
define linkonce_odr hidden noundef ptr @_ZNK17AbstractAssembler2pcEv(ptr noundef nonnull align 8 dereferenceable(24) %0) #1 comdat align 2 {
  %2 = alloca ptr, align 8
  store ptr %0, ptr %2, align 8
  %3 = load ptr, ptr %2, align 8
  %4 = call noundef ptr @_ZNK17AbstractAssembler12code_sectionEv(ptr noundef nonnull align 8 dereferenceable(24) %3)
  %5 = call noundef ptr @_ZNK11CodeSection3endEv(ptr noundef nonnull align 8 dereferenceable(88) %4)
  ret ptr %5
}

; Function Attrs: mustprogress nounwind uwtable
define linkonce_odr hidden void @_ZNK13LIR_Assembler7bailoutEPKc(ptr noundef nonnull align 8 dereferenceable(96) %0, ptr noundef %1) #1 comdat align 2 {
  %3 = alloca ptr, align 8
  %4 = alloca ptr, align 8
  store ptr %0, ptr %3, align 8
  store ptr %1, ptr %4, align 8
  %5 = load ptr, ptr %3, align 8
  %6 = call noundef ptr @_ZNK13LIR_Assembler11compilationEv(ptr noundef nonnull align 8 dereferenceable(96) %5)
  %7 = load ptr, ptr %4, align 8
  call void @_ZN11Compilation7bailoutEPKc(ptr noundef nonnull align 8 dereferenceable(704) %6, ptr noundef %7)
  ret void
}

; Function Attrs: mustprogress nounwind uwtable
define linkonce_odr hidden noundef i32 @_ZN13LIR_Assembler18deopt_handler_sizeEv() #1 comdat align 2 {
  ret i32 17
}

; Function Attrs: mustprogress nounwind uwtable
define hidden noundef i32 @_ZN13LIR_Assembler18emit_deopt_handlerEv(ptr noundef nonnull align 8 dereferenceable(96) %0) #1 align 2 {
  %2 = alloca i32, align 4
  %3 = alloca ptr, align 8
  %4 = alloca ptr, align 8
  %5 = alloca i32, align 4
  %6 = alloca %class.InternalAddress, align 8
  %7 = alloca %class.AddressLiteral, align 8
  %8 = alloca %class.Register, align 4
  %9 = alloca %class.AddressLiteral, align 8
  %10 = alloca %class.RuntimeAddress, align 8
  %11 = alloca %class.Register, align 4
  store ptr %0, ptr %3, align 8
  %12 = load ptr, ptr %3, align 8
  %13 = getelementptr inbounds %class.LIR_Assembler, ptr %12, i32 0, i32 0
  %14 = load ptr, ptr %13, align 8
  %15 = call noundef i32 @_ZN13LIR_Assembler18deopt_handler_sizeEv()
  %16 = call noundef ptr @_ZN17AbstractAssembler12start_a_stubEi(ptr noundef nonnull align 8 dereferenceable(24) %14, i32 noundef %15)
  store ptr %16, ptr %4, align 8
  %17 = load ptr, ptr %4, align 8
  %18 = icmp eq ptr %17, null
  br i1 %18, label %19, label %20

19:                                               ; preds = %1
  call void @_ZNK13LIR_Assembler7bailoutEPKc(ptr noundef nonnull align 8 dereferenceable(96) %12, ptr noundef @.str.12)
  store i32 -1, ptr %2, align 4
  br label %48

20:                                               ; preds = %1
  %21 = call noundef i32 @_ZNK13LIR_Assembler11code_offsetEv(ptr noundef nonnull align 8 dereferenceable(96) %12)
  store i32 %21, ptr %5, align 4
  %22 = getelementptr inbounds %class.LIR_Assembler, ptr %12, i32 0, i32 0
  %23 = load ptr, ptr %22, align 8
  %24 = call noundef ptr @_ZNK17AbstractAssembler2pcEv(ptr noundef nonnull align 8 dereferenceable(24) %23)
  call void @_ZN15InternalAddressC2EPh(ptr noundef nonnull align 8 dereferenceable(56) %6, ptr noundef %24)
  %25 = getelementptr inbounds %class.LIR_Assembler, ptr %12, i32 0, i32 0
  %26 = load ptr, ptr %25, align 8
  call void @_ZN14AddressLiteral4addrEv(ptr dead_on_unwind writable sret(%class.AddressLiteral) align 8 %7, ptr noundef nonnull align 8 dereferenceable(56) %6)
  call void @llvm.memcpy.p0.p0.i64(ptr align 4 %8, ptr align 4 @_ZL9rscratch1, i64 4, i1 false)
  %27 = getelementptr inbounds %class.Register, ptr %8, i32 0, i32 0
  %28 = load i32, ptr %27, align 4
  call void @_ZN14MacroAssembler7pushptrE14AddressLiteral8Register(ptr noundef nonnull align 8 dereferenceable(40) %26, ptr noundef %7, i32 %28)
  %29 = getelementptr inbounds %class.LIR_Assembler, ptr %12, i32 0, i32 0
  %30 = load ptr, ptr %29, align 8
  %31 = call noundef ptr @_ZN13SharedRuntime10deopt_blobEv()
  %32 = call noundef ptr @_ZNK18DeoptimizationBlob6unpackEv(ptr noundef nonnull align 8 dereferenceable(80) %31)
  call void @_ZN14RuntimeAddressC2EPh(ptr noundef nonnull align 8 dereferenceable(56) %10, ptr noundef %32)
  call void @_ZN14AddressLiteralC2EOS_(ptr noundef nonnull align 8 dereferenceable(56) %9, ptr noundef nonnull align 8 dereferenceable(56) %10)
  call void @llvm.memcpy.p0.p0.i64(ptr align 4 %11, ptr align 4 @_ZL5noreg, i64 4, i1 false)
  %33 = getelementptr inbounds %class.Register, ptr %11, i32 0, i32 0
  %34 = load i32, ptr %33, align 4
  call void @_ZN14MacroAssembler4jumpE14AddressLiteral8Register(ptr noundef nonnull align 8 dereferenceable(40) %30, ptr noundef %9, i32 %34)
  br label %35

35:                                               ; preds = %20
  %36 = call noundef i32 @_ZNK13LIR_Assembler11code_offsetEv(ptr noundef nonnull align 8 dereferenceable(96) %12)
  %37 = load i32, ptr %5, align 4
  %38 = sub nsw i32 %36, %37
  %39 = call noundef i32 @_ZN13LIR_Assembler18deopt_handler_sizeEv()
  %40 = icmp sle i32 %38, %39
  br i1 %40, label %43, label %41

41:                                               ; preds = %35
  %42 = load ptr, ptr @g_assert_poison, align 8
  store i8 88, ptr %42, align 1
  call void (ptr, i32, ptr, ptr, ...) @_Z15report_vm_errorPKciS0_S0_z(ptr noundef @.str.8, i32 noundef 491, ptr noundef @.str.13, ptr noundef @.str.11) #6
  unreachable

43:                                               ; preds = %35
  br label %44

44:                                               ; preds = %43
  %45 = getelementptr inbounds %class.LIR_Assembler, ptr %12, i32 0, i32 0
  %46 = load ptr, ptr %45, align 8
  call void @_ZN17AbstractAssembler10end_a_stubEv(ptr noundef nonnull align 8 dereferenceable(24) %46)
  %47 = load i32, ptr %5, align 4
  store i32 %47, ptr %2, align 4
  br label %48

48:                                               ; preds = %44, %19
  %49 = load i32, ptr %2, align 4
  ret i32 %49
}