; Function Attrs: mustprogress nounwind uwtable
define hidden noundef i32 @_ZN13LIR_Assembler18emit_deopt_handlerEv(ptr noundef nonnull align 8 dereferenceable(96) %0) local_unnamed_addr #0 align 2 {
  %2 = alloca %class.InternalAddress, align 8
  %3 = alloca %class.AddressLiteral, align 8
  %4 = alloca %class.AddressLiteral, align 8
  %5 = alloca %class.RuntimeAddress, align 8
  %6 = load ptr, ptr %0, align 8
  %7 = tail call noundef ptr @_ZN17AbstractAssembler12start_a_stubEi(ptr noundef nonnull align 8 dereferenceable(24) %6, i32 noundef 17) #15
  %8 = icmp eq ptr %7, null
  br i1 %8, label %9, label %12

9:                                                ; preds = %1
  %10 = getelementptr inbounds i8, ptr %0, i64 16
  %11 = load ptr, ptr %10, align 8
  tail call void @_ZN11Compilation7bailoutEPKc(ptr noundef nonnull align 8 dereferenceable(704) %11, ptr noundef nonnull @.str.12) #15
  br label %46

12:                                               ; preds = %1
  %13 = tail call noundef i32 @_ZNK13LIR_Assembler11code_offsetEv(ptr noundef nonnull align 8 dereferenceable(96) %0) #15
  %14 = load ptr, ptr %0, align 8
  %15 = getelementptr inbounds i8, ptr %14, i64 8
  %16 = load ptr, ptr %15, align 8
  %17 = getelementptr inbounds i8, ptr %16, i64 16
  %18 = load ptr, ptr %17, align 8
  call void @_ZN14AddressLiteralC2EPhN9relocInfo9relocTypeE(ptr noundef nonnull align 8 dereferenceable(56) %2, ptr noundef %18, i32 noundef 8) #15
  %19 = load ptr, ptr %0, align 8
  call void @llvm.experimental.noalias.scope.decl(metadata !27)
  %20 = load ptr, ptr %2, align 8, !noalias !27
  %21 = getelementptr inbounds i8, ptr %20, i64 16
  %22 = load ptr, ptr %21, align 8, !noalias !27
  call void %22(ptr noundef nonnull align 8 dereferenceable(20) %2, ptr noundef nonnull align 8 dereferenceable(40) %3) #15
  %23 = getelementptr inbounds i8, ptr %3, i64 40
  %24 = getelementptr inbounds i8, ptr %2, i64 40
  call void @llvm.memcpy.p0.p0.i64(ptr noundef nonnull align 8 dereferenceable(16) %23, ptr noundef nonnull align 8 dereferenceable(16) %24, i64 16, i1 false)
  store i8 1, ptr %23, align 8, !alias.scope !27
  call void @_ZN14MacroAssembler7pushptrE14AddressLiteral8Register(ptr noundef nonnull align 8 dereferenceable(40) %19, ptr noundef nonnull %3, i32 10) #15
  %25 = load ptr, ptr %0, align 8
  %26 = load ptr, ptr @_ZN13SharedRuntime11_deopt_blobE, align 8
  %27 = getelementptr inbounds i8, ptr %26, i64 36
  %28 = load i32, ptr %27, align 4
  %29 = sext i32 %28 to i64
  %30 = getelementptr inbounds i8, ptr %26, i64 %29
  %31 = getelementptr inbounds i8, ptr %26, i64 56
  %32 = load i32, ptr %31, align 8
  %33 = sext i32 %32 to i64
  %34 = getelementptr inbounds i8, ptr %30, i64 %33
  call void @_ZN14AddressLiteralC2EPhN9relocInfo9relocTypeE(ptr noundef nonnull align 8 dereferenceable(56) %5, ptr noundef %34, i32 noundef 6) #15
  %35 = load ptr, ptr %5, align 8
  %36 = getelementptr inbounds i8, ptr %35, i64 16
  %37 = load ptr, ptr %36, align 8
  call void %37(ptr noundef nonnull align 8 dereferenceable(20) %5, ptr noundef nonnull align 8 dereferenceable(40) %4) #15
  %38 = getelementptr inbounds i8, ptr %4, i64 40
  %39 = getelementptr inbounds i8, ptr %5, i64 40
  call void @llvm.memcpy.p0.p0.i64(ptr noundef nonnull align 8 dereferenceable(16) %38, ptr noundef nonnull align 8 dereferenceable(16) %39, i64 16, i1 false)
  call void @_ZN14MacroAssembler4jumpE14AddressLiteral8Register(ptr noundef nonnull align 8 dereferenceable(40) %25, ptr noundef nonnull %4, i32 -1) #15
  %40 = call noundef i32 @_ZNK13LIR_Assembler11code_offsetEv(ptr noundef nonnull align 8 dereferenceable(96) %0) #15
  %41 = sub nsw i32 %40, %13
  %.not = icmp sgt i32 %41, 17
  br i1 %.not, label %42, label %44

42:                                               ; preds = %12
  %43 = load ptr, ptr @g_assert_poison, align 8
  store i8 88, ptr %43, align 1
  call void (ptr, i32, ptr, ptr, ...) @_Z15report_vm_errorPKciS0_S0_z(ptr noundef nonnull @.str.8, i32 noundef 491, ptr noundef nonnull @.str.13, ptr noundef nonnull @.str.11) #16
  unreachable

44:                                               ; preds = %12
  %45 = load ptr, ptr %0, align 8
  call void @_ZN17AbstractAssembler10end_a_stubEv(ptr noundef nonnull align 8 dereferenceable(24) %45) #15
  br label %46

46:                                               ; preds = %44, %9
  %.0 = phi i32 [ -1, %9 ], [ %13, %44 ]
  ret i32 %.0
}